; Function Attrs: nounwind uwtable
define i32 @PEM_write_PrivateKey_ex(ptr noundef %0, ptr noundef %1, ptr noundef %2, ptr noundef %3, i32 noundef %4, ptr noundef %5, ptr noundef %6, ptr noundef readnone captures(none) %7, ptr noundef %8) local_unnamed_addr #0 {
  %10 = tail call ptr @BIO_new_fp(ptr noundef %0, i32 noundef 0) #6
  %11 = icmp eq ptr %10, null
  br i1 %11, label %12, label %13

12:                                               ; preds = %9
  tail call void @ERR_new() #6
  tail call void @ERR_set_debug(ptr noundef nonnull @.str, i32 noundef 436, ptr noundef nonnull @__func__.PEM_write_PrivateKey_ex) #6
  tail call void (i32, i32, ptr, ...) @ERR_set_error(i32 noundef 9, i32 noundef 524295, ptr noundef null) #6
  br label %16

13:                                               ; preds = %9
  %14 = tail call i32 @PEM_write_bio_PrivateKey_ex(ptr noundef nonnull %10, ptr noundef %1, ptr noundef %2, ptr noundef %3, i32 noundef %4, ptr noundef %5, ptr noundef %6, ptr poison, ptr noundef %8)
  %15 = tail call i32 @BIO_free(ptr noundef nonnull %10) #6
  br label %16

16:                                               ; preds = %13, %12
  %.0 = phi i32 [ 0, %12 ], [ %14, %13 ]
  ret i32 %.0
}